target datalayout = "e-m:e-p270:32:32-p271:32:32-p272:64:64-i64:64-i128:128-f80:128-n8:16:32:64-S128"
target triple = "x86_64-pc-linux-gnu"

@pg_get_utf8_id.utf8_id = internal global i32 -1, align 4
@.str.4 = private unnamed_addr constant [5 x i8] c"utf8\00", align 1

; Function Attrs: nounwind uwtable
define internal i32 @utf_charcheck(ptr noundef %0) #0 {
  %2 = alloca i32, align 4
  %3 = alloca ptr, align 8
  %4 = alloca i32, align 4
  %5 = alloca i32, align 4
  %6 = alloca i32, align 4
  %7 = alloca i32, align 4
  %8 = alloca i32, align 4
  store ptr %0, ptr %3, align 8
  %9 = load ptr, ptr %3, align 8
  %10 = load i8, ptr %9, align 1
  %11 = zext i8 %10 to i32
  %12 = and i32 %11, 128
  %13 = icmp eq i32 %12, 0
  br i1 %13, label %14, label %15

14:                                               ; preds = %1
  store i32 1, ptr %2, align 4
  br label %193

15:                                               ; preds = %1
  %16 = load ptr, ptr %3, align 8
  %17 = load i8, ptr %16, align 1
  %18 = zext i8 %17 to i32
  %19 = and i32 %18, 224
  %20 = icmp eq i32 %19, 192
  br i1 %20, label %21, label %37

21:                                               ; preds = %15
  %22 = load ptr, ptr %3, align 8
  %23 = getelementptr inbounds i8, ptr %22, i64 1
  %24 = load i8, ptr %23, align 1
  %25 = zext i8 %24 to i32
  %26 = and i32 %25, 192
  %27 = icmp eq i32 %26, 128
  br i1 %27, label %28, label %36

28:                                               ; preds = %21
  %29 = load ptr, ptr %3, align 8
  %30 = getelementptr inbounds i8, ptr %29, i64 0
  %31 = load i8, ptr %30, align 1
  %32 = zext i8 %31 to i32
  %33 = and i32 %32, 31
  %34 = icmp sgt i32 %33, 1
  br i1 %34, label %35, label %36

35:                                               ; preds = %28
  store i32 2, ptr %2, align 4
  br label %193

36:                                               ; preds = %28, %21
  store i32 -1, ptr %2, align 4
  br label %193

37:                                               ; preds = %15
  %38 = load ptr, ptr %3, align 8
  %39 = load i8, ptr %38, align 1
  %40 = zext i8 %39 to i32
  %41 = and i32 %40, 240
  %42 = icmp eq i32 %41, 224
  br i1 %42, label %43, label %118

43:                                               ; preds = %37
  %44 = load ptr, ptr %3, align 8
  %45 = getelementptr inbounds i8, ptr %44, i64 1
  %46 = load i8, ptr %45, align 1
  %47 = zext i8 %46 to i32
  %48 = and i32 %47, 192
  %49 = icmp eq i32 %48, 128
  br i1 %49, label %50, label %117

50:                                               ; preds = %43
  %51 = load ptr, ptr %3, align 8
  %52 = getelementptr inbounds i8, ptr %51, i64 0
  %53 = load i8, ptr %52, align 1
  %54 = zext i8 %53 to i32
  %55 = and i32 %54, 15
  %56 = icmp ne i32 %55, 0
  br i1 %56, label %64, label %57

57:                                               ; preds = %50
  %58 = load ptr, ptr %3, align 8
  %59 = getelementptr inbounds i8, ptr %58, i64 1
  %60 = load i8, ptr %59, align 1
  %61 = zext i8 %60 to i32
  %62 = and i32 %61, 32
  %63 = icmp eq i32 %62, 32
  br i1 %63, label %64, label %117

64:                                               ; preds = %57, %50
  %65 = load ptr, ptr %3, align 8
  %66 = getelementptr inbounds i8, ptr %65, i64 2
  %67 = load i8, ptr %66, align 1
  %68 = zext i8 %67 to i32
  %69 = and i32 %68, 192
  %70 = icmp eq i32 %69, 128
  br i1 %70, label %71, label %117

71:                                               ; preds = %64
  call void @llvm.lifetime.start.p0(i64 4, ptr %4) #5
  %72 = load ptr, ptr %3, align 8
  %73 = getelementptr inbounds i8, ptr %72, i64 0
  %74 = load i8, ptr %73, align 1
  %75 = zext i8 %74 to i32
  %76 = and i32 %75, 15
  store i32 %76, ptr %4, align 4
  call void @llvm.lifetime.start.p0(i64 4, ptr %5) #5
  %77 = load ptr, ptr %3, align 8
  %78 = getelementptr inbounds i8, ptr %77, i64 1
  %79 = load i8, ptr %78, align 1
  %80 = zext i8 %79 to i32
  %81 = and i32 %80, 63
  %82 = shl i32 %81, 6
  %83 = load ptr, ptr %3, align 8
  %84 = getelementptr inbounds i8, ptr %83, i64 0
  %85 = load i8, ptr %84, align 1
  %86 = zext i8 %85 to i32
  %87 = and i32 %86, 63
  %88 = or i32 %82, %87
  store i32 %88, ptr %5, align 4
  call void @llvm.lifetime.start.p0(i64 4, ptr %6) #5
  %89 = load i32, ptr %5, align 4
  %90 = and i32 %89, 127
  store i32 %90, ptr %6, align 4
  %91 = load i32, ptr %4, align 4
  %92 = icmp eq i32 %91, 15
  br i1 %92, label %93, label %107

93:                                               ; preds = %71
  %94 = load i32, ptr %5, align 4
  %95 = and i32 %94, 4094
  %96 = icmp eq i32 %95, 4094
  br i1 %96, label %114, label %97

97:                                               ; preds = %93
  %98 = load i32, ptr %5, align 4
  %99 = and i32 %98, 3968
  %100 = icmp eq i32 %99, 3456
  br i1 %100, label %101, label %107

101:                                              ; preds = %97
  %102 = load i32, ptr %6, align 4
  %103 = icmp sge i32 %102, 48
  br i1 %103, label %104, label %107

104:                                              ; preds = %101
  %105 = load i32, ptr %6, align 4
  %106 = icmp sle i32 %105, 79
  br i1 %106, label %114, label %107

107:                                              ; preds = %104, %101, %97, %71
  %108 = load i32, ptr %4, align 4
  %109 = icmp eq i32 %108, 13
  br i1 %109, label %110, label %115

110:                                              ; preds = %107
  %111 = load i32, ptr %5, align 4
  %112 = and i32 %111, 2816
  %113 = icmp eq i32 %112, 2048
  br i1 %113, label %114, label %115

114:                                              ; preds = %110, %104, %93
  store i32 -1, ptr %2, align 4
  store i32 1, ptr %7, align 4
  br label %116

115:                                              ; preds = %110, %107
  store i32 3, ptr %2, align 4
  store i32 1, ptr %7, align 4
  br label %116

116:                                              ; preds = %115, %114
  call void @llvm.lifetime.end.p0(i64 4, ptr %6) #5
  call void @llvm.lifetime.end.p0(i64 4, ptr %5) #5
  call void @llvm.lifetime.end.p0(i64 4, ptr %4) #5
  br label %193

117:                                              ; preds = %64, %57, %43
  store i32 -1, ptr %2, align 4
  br label %193

118:                                              ; preds = %37
  %119 = load ptr, ptr %3, align 8
  %120 = load i8, ptr %119, align 1
  %121 = zext i8 %120 to i32
  %122 = and i32 %121, 248
  %123 = icmp eq i32 %122, 240
  br i1 %123, label %124, label %189

124:                                              ; preds = %118
  call void @llvm.lifetime.start.p0(i64 4, ptr %8) #5
  %125 = load ptr, ptr %3, align 8
  %126 = getelementptr inbounds i8, ptr %125, i64 0
  %127 = load i8, ptr %126, align 1
  %128 = zext i8 %127 to i32
  %129 = and i32 %128, 7
  %130 = shl i32 %129, 2
  %131 = load ptr, ptr %3, align 8
  %132 = getelementptr inbounds i8, ptr %131, i64 1
  %133 = load i8, ptr %132, align 1
  %134 = zext i8 %133 to i32
  %135 = and i32 %134, 48
  %136 = ashr i32 %135, 4
  %137 = or i32 %130, %136
  store i32 %137, ptr %8, align 4
  %138 = load ptr, ptr %3, align 8
  %139 = getelementptr inbounds i8, ptr %138, i64 1
  %140 = load i8, ptr %139, align 1
  %141 = zext i8 %140 to i32
  %142 = and i32 %141, 192
  %143 = icmp eq i32 %142, 128
  br i1 %143, label %144, label %187

144:                                              ; preds = %124
  %145 = load i32, ptr %8, align 4
  %146 = icmp sgt i32 %145, 0
  br i1 %146, label %147, label %187

147:                                              ; preds = %144
  %148 = load i32, ptr %8, align 4
  %149 = icmp sle i32 %148, 16
  br i1 %149, label %150, label %187

150:                                              ; preds = %147
  %151 = load ptr, ptr %3, align 8
  %152 = getelementptr inbounds i8, ptr %151, i64 2
  %153 = load i8, ptr %152, align 1
  %154 = zext i8 %153 to i32
  %155 = and i32 %154, 192
  %156 = icmp eq i32 %155, 128
  br i1 %156, label %157, label %187

157:                                              ; preds = %150
  %158 = load ptr, ptr %3, align 8
  %159 = getelementptr inbounds i8, ptr %158, i64 3
  %160 = load i8, ptr %159, align 1
  %161 = zext i8 %160 to i32
  %162 = and i32 %161, 192
  %163 = icmp eq i32 %162, 128
  br i1 %163, label %164, label %187

164:                                              ; preds = %157
  %165 = load ptr, ptr %3, align 8
  %166 = getelementptr inbounds i8, ptr %165, i64 1
  %167 = load i8, ptr %166, align 1
  %168 = zext i8 %167 to i32
  %169 = and i32 %168, 15
  %170 = icmp eq i32 %169, 15
  br i1 %170, label %171, label %186

171:                                              ; preds = %164
  %172 = load ptr, ptr %3, align 8
  %173 = getelementptr inbounds i8, ptr %172, i64 2
  %174 = load i8, ptr %173, align 1
  %175 = zext i8 %174 to i32
  %176 = and i32 %175, 63
  %177 = icmp eq i32 %176, 63
  br i1 %177, label %178, label %186

178:                                              ; preds = %171
  %179 = load ptr, ptr %3, align 8
  %180 = getelementptr inbounds i8, ptr %179, i64 3
  %181 = load i8, ptr %180, align 1
  %182 = zext i8 %181 to i32
  %183 = and i32 %182, 62
  %184 = icmp eq i32 %183, 62
  br i1 %184, label %185, label %186

185:                                              ; preds = %178
  store i32 -1, ptr %2, align 4
  store i32 1, ptr %7, align 4
  br label %188

186:                                              ; preds = %178, %171, %164
  store i32 4, ptr %2, align 4
  store i32 1, ptr %7, align 4
  br label %188

187:                                              ; preds = %157, %150, %147, %144, %124
  store i32 -1, ptr %2, align 4
  store i32 1, ptr %7, align 4
  br label %188

188:                                              ; preds = %187, %186, %185
  call void @llvm.lifetime.end.p0(i64 4, ptr %8) #5
  br label %193

189:                                              ; preds = %118
  br label %190

190:                                              ; preds = %189
  br label %191

191:                                              ; preds = %190
  br label %192

192:                                              ; preds = %191
  store i32 -1, ptr %2, align 4
  br label %193

193:                                              ; preds = %192, %188, %117, %116, %36, %35, %14
  %194 = load i32, ptr %2, align 4
  ret i32 %194
}

; Function Attrs: nounwind uwtable
define internal void @mb_utf_validate(ptr noundef %0) #0 {
  %2 = alloca ptr, align 8
  %3 = alloca ptr, align 8
  %4 = alloca i32, align 4
  %5 = alloca i32, align 4
  store ptr %0, ptr %2, align 8
  call void @llvm.lifetime.start.p0(i64 8, ptr %3) #5
  %6 = load ptr, ptr %2, align 8
  store ptr %6, ptr %3, align 8
  br label %7

7:                                                ; preds = %47, %1
  %8 = load ptr, ptr %2, align 8
  %9 = load i8, ptr %8, align 1
  %10 = icmp ne i8 %9, 0
  br i1 %10, label %11, label %48

11:                                               ; preds = %7
  call void @llvm.lifetime.start.p0(i64 4, ptr %4) #5
  %12 = load ptr, ptr %2, align 8
  %13 = call i32 @utf_charcheck(ptr noundef %12)
  store i32 %13, ptr %4, align 4
  %14 = icmp sgt i32 %13, 0
  br i1 %14, label %15, label %44

15:                                               ; preds = %11
  %16 = load ptr, ptr %3, align 8
  %17 = load ptr, ptr %2, align 8
  %18 = icmp ne ptr %16, %17
  br i1 %18, label %19, label %34

19:                                               ; preds = %15
  call void @llvm.lifetime.start.p0(i64 4, ptr %5) #5
  store i32 0, ptr %5, align 4
  br label %20

20:                                               ; preds = %30, %19
  %21 = load i32, ptr %5, align 4
  %22 = load i32, ptr %4, align 4
  %23 = icmp slt i32 %21, %22
  br i1 %23, label %24, label %33

24:                                               ; preds = %20
  %25 = load ptr, ptr %2, align 8
  %26 = getelementptr inbounds nuw i8, ptr %25, i32 1
  store ptr %26, ptr %2, align 8
  %27 = load i8, ptr %25, align 1
  %28 = load ptr, ptr %3, align 8
  %29 = getelementptr inbounds nuw i8, ptr %28, i32 1
  store ptr %29, ptr %3, align 8
  store i8 %27, ptr %28, align 1
  br label %30

30:                                               ; preds = %24
  %31 = load i32, ptr %5, align 4
  %32 = add i32 %31, 1
  store i32 %32, ptr %5, align 4
  br label %20, !llvm.loop !11

33:                                               ; preds = %20
  call void @llvm.lifetime.end.p0(i64 4, ptr %5) #5
  br label %43

34:                                               ; preds = %15
  %35 = load i32, ptr %4, align 4
  %36 = load ptr, ptr %2, align 8
  %37 = sext i32 %35 to i64
  %38 = getelementptr inbounds i8, ptr %36, i64 %37
  store ptr %38, ptr %2, align 8
  %39 = load i32, ptr %4, align 4
  %40 = load ptr, ptr %3, align 8
  %41 = sext i32 %39 to i64
  %42 = getelementptr inbounds i8, ptr %40, i64 %41
  store ptr %42, ptr %3, align 8
  br label %43

43:                                               ; preds = %34, %33
  br label %47

44:                                               ; preds = %11
  %45 = load ptr, ptr %2, align 8
  %46 = getelementptr inbounds nuw i8, ptr %45, i32 1
  store ptr %46, ptr %2, align 8
  br label %47

47:                                               ; preds = %44, %43
  call void @llvm.lifetime.end.p0(i64 4, ptr %4) #5
  br label %7, !llvm.loop !12

48:                                               ; preds = %7
  %49 = load ptr, ptr %3, align 8
  %50 = load ptr, ptr %2, align 8
  %51 = icmp ne ptr %49, %50
  br i1 %51, label %52, label %54

52:                                               ; preds = %48
  %53 = load ptr, ptr %3, align 8
  store i8 0, ptr %53, align 1
  br label %54

54:                                               ; preds = %52, %48
  call void @llvm.lifetime.end.p0(i64 8, ptr %3) #5
  ret void
}

; Function Attrs: nounwind uwtable
define internal i32 @pg_get_utf8_id() #0 {
  %1 = load i32, ptr @pg_get_utf8_id.utf8_id, align 4
  %2 = icmp slt i32 %1, 0
  br i1 %2, label %3, label %5

3:                                                ; preds = %0
  %4 = call i32 @pg_char_to_encoding(ptr noundef @.str.4)
  store i32 %4, ptr @pg_get_utf8_id.utf8_id, align 4
  br label %5

5:                                                ; preds = %3, %0
  %6 = load i32, ptr @pg_get_utf8_id.utf8_id, align 4
  ret i32 %6
}

; Function Attrs: nounwind uwtable
define dso_local ptr @mbvalidate(ptr noundef %0, i32 noundef %1) #0 {
  %3 = alloca ptr, align 8
  %4 = alloca i32, align 4
  store ptr %0, ptr %3, align 8
  store i32 %1, ptr %4, align 4
  %5 = load i32, ptr %4, align 4
  %6 = call i32 @pg_get_utf8_id()
  %7 = icmp eq i32 %5, %6
  br i1 %7, label %8, label %10

8:                                                ; preds = %2
  %9 = load ptr, ptr %3, align 8
  call void @mb_utf_validate(ptr noundef %9)
  br label %11

10:                                               ; preds = %2
  br label %11

11:                                               ; preds = %10, %8
  %12 = load ptr, ptr %3, align 8
  ret ptr %12
}