; Function Attrs: nounwind uwtable
define dso_local noundef ptr @mbvalidate(ptr noundef returned captures(address, ret: address, provenance) %0, i32 noundef %1) local_unnamed_addr #0 {
  %3 = load i32, ptr @pg_get_utf8_id.utf8_id, align 4
  %4 = icmp slt i32 %3, 0
  br i1 %4, label %5, label %pg_get_utf8_id.exit

5:                                                ; preds = %2
  %6 = tail call i32 @pg_char_to_encoding(ptr noundef nonnull @.str.4) #6
  store i32 %6, ptr @pg_get_utf8_id.utf8_id, align 4
  br label %pg_get_utf8_id.exit

pg_get_utf8_id.exit:                              ; preds = %2, %5
  %7 = phi i32 [ %6, %5 ], [ %3, %2 ]
  %8 = icmp eq i32 %1, %7
  br i1 %8, label %9, label %mb_utf_validate.exit

9:                                                ; preds = %pg_get_utf8_id.exit
  %10 = load i8, ptr %0, align 1
  %.not30.i = icmp eq i8 %10, 0
  br i1 %.not30.i, label %mb_utf_validate.exit, label %.lr.ph.i

.lr.ph.i:                                         ; preds = %9, %.loopexit.i
  %11 = phi i8 [ %84, %.loopexit.i ], [ %10, %9 ]
  %.01732.i = phi ptr [ %.2.i, %.loopexit.i ], [ %0, %9 ]
  %.01831.i = phi ptr [ %.220.i, %.loopexit.i ], [ %0, %9 ]
  %12 = zext i8 %11 to i32
  %13 = icmp sgt i8 %11, -1
  br i1 %13, label %utf_charcheck.exit.i, label %14

14:                                               ; preds = %.lr.ph.i
  %15 = and i32 %12, 224
  %16 = icmp eq i32 %15, 192
  br i1 %16, label %17, label %22

17:                                               ; preds = %14
  %18 = getelementptr inbounds nuw i8, ptr %.01732.i, i64 1
  %19 = load i8, ptr %18, align 1
  %20 = icmp sgt i8 %19, -65
  %21 = and i32 %12, 30
  %.not39.i.i = icmp eq i32 %21, 0
  %or.cond.i.i = or i1 %.not39.i.i, %20
  br i1 %or.cond.i.i, label %select.unfold.i, label %utf_charcheck.exit.i

22:                                               ; preds = %14
  %23 = and i32 %12, 240
  %24 = icmp eq i32 %23, 224
  br i1 %24, label %25, label %41

25:                                               ; preds = %22
  %26 = getelementptr inbounds nuw i8, ptr %.01732.i, i64 1
  %27 = load i8, ptr %26, align 1
  %28 = zext i8 %27 to i32
  %29 = and i32 %28, 192
  %30 = icmp eq i32 %29, 128
  br i1 %30, label %31, label %select.unfold.i

31:                                               ; preds = %25
  %32 = and i32 %12, 15
  %33 = and i32 %28, 32
  %34 = or disjoint i32 %33, %32
  %or.cond40.i.i = icmp eq i32 %34, 0
  br i1 %or.cond40.i.i, label %select.unfold.i, label %35

35:                                               ; preds = %31
  %36 = getelementptr inbounds nuw i8, ptr %.01732.i, i64 2
  %37 = load i8, ptr %36, align 1
  %38 = icmp slt i8 %37, -64
  br i1 %38, label %39, label %select.unfold.i

39:                                               ; preds = %35
  %cond.i.i = icmp eq i32 %32, 13
  %40 = and i8 %27, 44
  %.old41.i.i = icmp eq i8 %40, 32
  %or.cond50.i.i = and i1 %cond.i.i, %.old41.i.i
  br i1 %or.cond50.i.i, label %select.unfold.i, label %utf_charcheck.exit.i

41:                                               ; preds = %22
  %42 = and i32 %12, 248
  %43 = icmp eq i32 %42, 240
  br i1 %43, label %44, label %select.unfold.i

44:                                               ; preds = %41
  %45 = shl nuw nsw i32 %12, 2
  %46 = and i32 %45, 28
  %47 = getelementptr inbounds nuw i8, ptr %.01732.i, i64 1
  %48 = load i8, ptr %47, align 1
  %49 = zext i8 %48 to i32
  %50 = lshr i32 %49, 4
  %51 = and i32 %50, 3
  %52 = and i32 %49, 192
  %53 = icmp eq i32 %52, 128
  %54 = add nsw i32 %46, -1
  %55 = add nsw i32 %54, %51
  %56 = icmp ult i32 %55, 16
  %or.cond7.i.i = select i1 %53, i1 %56, i1 false
  br i1 %or.cond7.i.i, label %57, label %select.unfold.i

57:                                               ; preds = %44
  %58 = getelementptr inbounds nuw i8, ptr %.01732.i, i64 2
  %59 = load i8, ptr %58, align 1
  %60 = zext i8 %59 to i32
  %61 = and i32 %60, 192
  %62 = icmp eq i32 %61, 128
  br i1 %62, label %63, label %select.unfold.i

63:                                               ; preds = %57
  %64 = getelementptr inbounds nuw i8, ptr %.01732.i, i64 3
  %65 = load i8, ptr %64, align 1
  %66 = zext i8 %65 to i32
  %67 = and i32 %66, 192
  %68 = icmp eq i32 %67, 128
  br i1 %68, label %69, label %select.unfold.i

69:                                               ; preds = %63
  %70 = and i32 %49, 15
  %71 = icmp eq i32 %70, 15
  %72 = and i32 %60, 63
  %73 = icmp eq i32 %72, 63
  %or.cond45.i.i = and i1 %71, %73
  %74 = and i32 %66, 62
  %75 = icmp eq i32 %74, 62
  %or.cond48.i.i = and i1 %or.cond45.i.i, %75
  br i1 %or.cond48.i.i, label %select.unfold.i, label %utf_charcheck.exit.i

utf_charcheck.exit.i:                             ; preds = %69, %39, %17, %.lr.ph.i
  %.0.i.i = phi i32 [ 1, %.lr.ph.i ], [ 2, %17 ], [ 4, %69 ], [ 3, %39 ]
  %.not23.i = icmp eq ptr %.01831.i, %.01732.i
  br i1 %.not23.i, label %80, label %.preheader.i

.preheader.i:                                     ; preds = %utf_charcheck.exit.i, %.preheader.i
  %.029.i = phi i32 [ %79, %.preheader.i ], [ 0, %utf_charcheck.exit.i ]
  %.128.i = phi ptr [ %76, %.preheader.i ], [ %.01732.i, %utf_charcheck.exit.i ]
  %.11927.i = phi ptr [ %78, %.preheader.i ], [ %.01831.i, %utf_charcheck.exit.i ]
  %76 = getelementptr inbounds nuw i8, ptr %.128.i, i64 1
  %77 = load i8, ptr %.128.i, align 1
  %78 = getelementptr inbounds nuw i8, ptr %.11927.i, i64 1
  store i8 %77, ptr %.11927.i, align 1
  %79 = add nuw nsw i32 %.029.i, 1
  %exitcond.not.i = icmp eq i32 %79, %.0.i.i
  br i1 %exitcond.not.i, label %.loopexit.i, label %.preheader.i, !llvm.loop !8

80:                                               ; preds = %utf_charcheck.exit.i
  %81 = zext nneg i32 %.0.i.i to i64
  %82 = getelementptr inbounds nuw i8, ptr %.01732.i, i64 %81
  br label %.loopexit.i

select.unfold.i:                                  ; preds = %69, %63, %57, %44, %41, %39, %35, %31, %25, %17
  %83 = getelementptr inbounds nuw i8, ptr %.01732.i, i64 1
  br label %.loopexit.i

.loopexit.i:                                      ; preds = %.preheader.i, %select.unfold.i, %80
  %.220.i = phi ptr [ %82, %80 ], [ %.01831.i, %select.unfold.i ], [ %78, %.preheader.i ]
  %.2.i = phi ptr [ %82, %80 ], [ %83, %select.unfold.i ], [ %76, %.preheader.i ]
  %84 = load i8, ptr %.2.i, align 1
  %.not.i = icmp eq i8 %84, 0
  br i1 %.not.i, label %._crit_edge.i, label %.lr.ph.i, !llvm.loop !9

._crit_edge.i:                                    ; preds = %.loopexit.i
  %.not22.i = icmp eq ptr %.220.i, %.2.i
  br i1 %.not22.i, label %mb_utf_validate.exit, label %85

85:                                               ; preds = %._crit_edge.i
  store i8 0, ptr %.220.i, align 1
  br label %mb_utf_validate.exit

mb_utf_validate.exit:                             ; preds = %85, %._crit_edge.i, %9, %pg_get_utf8_id.exit
  ret ptr %0
}